target datalayout = "e-m:e-p270:32:32-p271:32:32-p272:64:64-i64:64-i128:128-f80:128-n8:16:32:64-S128"
target triple = "x86_64-pc-linux-gnu"

%struct._zend_executor_globals = type { %struct._zval_struct, %struct._zval_struct, [32 x ptr], ptr, ptr, %struct._zend_array, %struct._zend_array, ptr, i32, i32, ptr, ptr, ptr, ptr, ptr, ptr, i64, ptr, ptr, i32, i32, i64, i32, i32, i32, i8, i8, %struct.zend_atomic_bool_s, %struct.zend_atomic_bool_s, ptr, i64, ptr, ptr, %struct._zend_array, %struct._zend_array, i32, i8, %struct._zval_struct, %struct._zval_struct, %struct._zend_stack, %struct._zend_stack, %struct._zend_stack, ptr, i32, i32, i64, ptr, ptr, ptr, %struct._zend_objects_store, ptr, ptr, ptr, [3 x %struct._zend_op], ptr, i8, i8, i64, i32, i32, ptr, [16 x %struct._HashTableIterator], ptr, %union._zend_function, %struct._zend_op, %struct._zend_array, i64, %struct.zend_get_gc_buffer, ptr, ptr, ptr, i64, i8, i32, ptr, ptr, i64, %struct._zend_call_stack, i64, i64, [6 x ptr] }
%struct.zend_atomic_bool_s = type { i8 }
%struct._zval_struct = type { %union._zend_value, %union.anon, %union.anon.2 }
%union._zend_value = type { i64 }
%union.anon = type { i32 }
%union.anon.2 = type { i32 }
%struct._zend_stack = type { i32, i32, i32, ptr }
%struct._zend_objects_store = type { ptr, i32, i32, i32 }
%struct._HashTableIterator = type { ptr, i32, i32 }
%union._zend_function = type { %struct._zend_op_array }
%struct._zend_op_array = type { i8, [3 x i8], i32, ptr, ptr, ptr, i32, i32, ptr, ptr, ptr, ptr, i32, i32, i32, i32, ptr, ptr, ptr, ptr, ptr, i32, i32, ptr, ptr, ptr, i32, i32, i32, i32, ptr, ptr, [6 x ptr] }
%struct._zend_op = type { ptr, %union._znode_op, %union._znode_op, %union._znode_op, i32, i32, i8, i8, i8, i8 }
%union._znode_op = type { i32 }
%struct._zend_array = type { %struct._zend_refcounted_h, %union.anon.4, i32, %union.anon.6, i32, i32, i32, i32, i64, ptr }
%struct._zend_refcounted_h = type { i32, %union.anon.3 }
%union.anon.3 = type { i32 }
%union.anon.4 = type { i32 }
%union.anon.6 = type { ptr }
%struct.zend_get_gc_buffer = type { ptr, ptr, ptr }
%struct._zend_call_stack = type { ptr, i64 }
%struct._zend_execute_data = type { ptr, ptr, ptr, ptr, %struct._zval_struct, ptr, ptr, ptr, ptr }
%struct.php_sxe_object = type { ptr, ptr, ptr, ptr, %struct.anon.8, %struct._zval_struct, ptr, %struct._zend_object }
%struct.anon.8 = type { ptr, ptr, i32, i32, %struct._zval_struct }
%struct._zend_object = type { %struct._zend_refcounted_h, i32, ptr, ptr, ptr, [1 x %struct._zval_struct] }
%struct._php_libxml_node_ptr = type { ptr, i32, ptr }
%struct._php_libxml_ref_obj = type { ptr, ptr, %struct.php_libxml_cache_tag, i32, i8 }
%struct.php_libxml_cache_tag = type { i64 }

@executor_globals = external global %struct._zend_executor_globals, align 8
@.str.1 = private unnamed_addr constant [45 x i8] c"SimpleXMLElement is not properly initialized\00", align 1
@.str.5 = private unnamed_addr constant [4 x i8] c"|bb\00", align 1

; Function Attrs: nounwind uwtable
define internal ptr @php_sxe_fetch_object(ptr noundef %0) #0 {
  %2 = alloca ptr, align 8
  store ptr %0, ptr %2, align 8
  %3 = load ptr, ptr %2, align 8
  %4 = getelementptr inbounds i8, ptr %3, i64 -96
  ret ptr %4
}

; Function Attrs: nounwind uwtable
define hidden void @zim_SimpleXMLElement_getDocNamespaces(ptr noundef %0, ptr noundef %1) #0 {
  %3 = alloca ptr, align 8
  %4 = alloca ptr, align 8
  %5 = alloca i8, align 1
  %6 = alloca i8, align 1
  %7 = alloca ptr, align 8
  %8 = alloca ptr, align 8
  %9 = alloca ptr, align 8
  %10 = alloca ptr, align 8
  store ptr %0, ptr %3, align 8
  store ptr %1, ptr %4, align 8
  store i8 0, ptr %5, align 1
  store i8 1, ptr %6, align 1
  %11 = load ptr, ptr %3, align 8
  %12 = getelementptr inbounds %struct._zend_execute_data, ptr %11, i32 0, i32 4
  %13 = getelementptr inbounds %struct._zval_struct, ptr %12, i32 0, i32 2
  %14 = load i32, ptr %13, align 4
  %15 = call i32 (i32, ptr, ...) @zend_parse_parameters(i32 noundef %14, ptr noundef @.str.5, ptr noundef %5, ptr noundef %6)
  %16 = icmp eq i32 %15, -1
  br i1 %16, label %17, label %22

17:                                               ; preds = %2
  br label %18

18:                                               ; preds = %17
  %19 = load ptr, ptr getelementptr inbounds (%struct._zend_executor_globals, ptr @executor_globals, i32 0, i32 50), align 8
  %20 = icmp ne ptr %19, null
  call void @llvm.assume(i1 %20)
  br label %92

21:                                               ; No predecessors!
  br label %22

22:                                               ; preds = %21, %2
  %23 = load ptr, ptr %3, align 8
  %24 = getelementptr inbounds %struct._zend_execute_data, ptr %23, i32 0, i32 4
  %25 = getelementptr inbounds %struct._zval_struct, ptr %24, i32 0, i32 0
  %26 = load ptr, ptr %25, align 8
  %27 = call ptr @php_sxe_fetch_object(ptr noundef %26)
  store ptr %27, ptr %7, align 8
  %28 = load i8, ptr %6, align 1
  %29 = trunc i8 %28 to i1
  br i1 %29, label %30, label %47

30:                                               ; preds = %22
  %31 = load ptr, ptr %7, align 8
  %32 = getelementptr inbounds %struct.php_sxe_object, ptr %31, i32 0, i32 1
  %33 = load ptr, ptr %32, align 8
  %34 = icmp ne ptr %33, null
  br i1 %34, label %40, label %35

35:                                               ; preds = %30
  call void (ptr, ptr, ...) @zend_throw_error(ptr noundef null, ptr noundef @.str.1)
  br label %36

36:                                               ; preds = %35
  %37 = load ptr, ptr getelementptr inbounds (%struct._zend_executor_globals, ptr @executor_globals, i32 0, i32 50), align 8
  %38 = icmp ne ptr %37, null
  call void @llvm.assume(i1 %38)
  br label %92

39:                                               ; No predecessors!
  br label %40

40:                                               ; preds = %39, %30
  %41 = load ptr, ptr %7, align 8
  %42 = getelementptr inbounds %struct.php_sxe_object, ptr %41, i32 0, i32 1
  %43 = load ptr, ptr %42, align 8
  %44 = getelementptr inbounds %struct._php_libxml_ref_obj, ptr %43, i32 0, i32 0
  %45 = load ptr, ptr %44, align 8
  %46 = call ptr @xmlDocGetRootElement(ptr noundef %45)
  store ptr %46, ptr %8, align 8
  br label %67

47:                                               ; preds = %22
  %48 = load ptr, ptr %7, align 8
  %49 = getelementptr inbounds %struct.php_sxe_object, ptr %48, i32 0, i32 0
  %50 = load ptr, ptr %49, align 8
  %51 = icmp ne ptr %50, null
  br i1 %51, label %52, label %65

52:                                               ; preds = %47
  %53 = load ptr, ptr %7, align 8
  %54 = getelementptr inbounds %struct.php_sxe_object, ptr %53, i32 0, i32 0
  %55 = load ptr, ptr %54, align 8
  %56 = getelementptr inbounds %struct._php_libxml_node_ptr, ptr %55, i32 0, i32 0
  %57 = load ptr, ptr %56, align 8
  %58 = icmp ne ptr %57, null
  br i1 %58, label %59, label %65

59:                                               ; preds = %52
  %60 = load ptr, ptr %7, align 8
  %61 = getelementptr inbounds %struct.php_sxe_object, ptr %60, i32 0, i32 0
  %62 = load ptr, ptr %61, align 8
  %63 = getelementptr inbounds %struct._php_libxml_node_ptr, ptr %62, i32 0, i32 0
  %64 = load ptr, ptr %63, align 8
  store ptr %64, ptr %8, align 8
  br label %66

65:                                               ; preds = %52, %47
  store ptr null, ptr %8, align 8
  call void (ptr, ptr, ...) @zend_throw_error(ptr noundef null, ptr noundef @.str.1)
  br label %66

66:                                               ; preds = %65, %59
  br label %67

67:                                               ; preds = %66, %40
  %68 = load ptr, ptr %8, align 8
  %69 = icmp eq ptr %68, null
  br i1 %69, label %70, label %77

70:                                               ; preds = %67
  br label %71

71:                                               ; preds = %70
  br label %72

72:                                               ; preds = %71
  %73 = load ptr, ptr %4, align 8
  %74 = getelementptr inbounds %struct._zval_struct, ptr %73, i32 0, i32 1
  store i32 2, ptr %74, align 8
  br label %75

75:                                               ; preds = %72
  br label %92

76:                                               ; No predecessors!
  br label %77

77:                                               ; preds = %76, %67
  br label %78

78:                                               ; preds = %77
  %79 = call ptr @_zend_new_array_0()
  store ptr %79, ptr %9, align 8
  %80 = load ptr, ptr %4, align 8
  store ptr %80, ptr %10, align 8
  %81 = load ptr, ptr %9, align 8
  %82 = load ptr, ptr %10, align 8
  %83 = getelementptr inbounds %struct._zval_struct, ptr %82, i32 0, i32 0
  store ptr %81, ptr %83, align 8
  %84 = load ptr, ptr %10, align 8
  %85 = getelementptr inbounds %struct._zval_struct, ptr %84, i32 0, i32 1
  store i32 775, ptr %85, align 8
  br label %86

86:                                               ; preds = %78
  %87 = load ptr, ptr %7, align 8
  %88 = load ptr, ptr %8, align 8
  %89 = load i8, ptr %5, align 1
  %90 = trunc i8 %89 to i1
  %91 = load ptr, ptr %4, align 8
  call void @sxe_add_registered_namespaces(ptr noundef %87, ptr noundef %88, i1 noundef zeroext %90, ptr noundef %91)
  br label %92

92:                                               ; preds = %86, %75, %36, %18
  ret void
}