; Function Attrs: nounwind uwtable
define hidden void @zim_SimpleXMLElement_getDocNamespaces(ptr nocapture noundef readonly %0, ptr nocapture noundef %1) #1 {
  %3 = alloca i8, align 1
  %4 = alloca i8, align 1
  store i8 0, ptr %3, align 1
  store i8 1, ptr %4, align 1
  %5 = getelementptr inbounds i8, ptr %0, i64 44
  %6 = load i32, ptr %5, align 4
  %7 = call i32 (i32, ptr, ...) @zend_parse_parameters(i32 noundef %6, ptr noundef nonnull @.str.5, ptr noundef nonnull %3, ptr noundef nonnull %4) #14
  %8 = icmp eq i32 %7, -1
  br i1 %8, label %9, label %12

9:                                                ; preds = %2
  %10 = load ptr, ptr getelementptr inbounds (%struct._zend_executor_globals, ptr @executor_globals, i64 0, i32 50), align 8
  %11 = icmp ne ptr %10, null
  call void @llvm.assume(i1 %11)
  br label %39

12:                                               ; preds = %2
  %13 = getelementptr inbounds i8, ptr %0, i64 32
  %14 = load ptr, ptr %13, align 8
  %15 = load i8, ptr %4, align 1
  %16 = and i8 %15, 1
  %.not = icmp eq i8 %16, 0
  br i1 %.not, label %23, label %17

17:                                               ; preds = %12
  %18 = getelementptr inbounds i8, ptr %14, i64 -88
  %19 = load ptr, ptr %18, align 8
  %.not21 = icmp eq ptr %19, null
  br i1 %.not21, label %20, label %28

20:                                               ; preds = %17
  call void (ptr, ptr, ...) @zend_throw_error(ptr noundef null, ptr noundef nonnull @.str.1) #14
  %21 = load ptr, ptr getelementptr inbounds (%struct._zend_executor_globals, ptr @executor_globals, i64 0, i32 50), align 8
  %22 = icmp ne ptr %21, null
  call void @llvm.assume(i1 %22)
  br label %39

23:                                               ; preds = %12
  %24 = getelementptr inbounds i8, ptr %14, i64 -96
  %25 = load ptr, ptr %24, align 8
  %.not19 = icmp eq ptr %25, null
  br i1 %.not19, label %.thread, label %26

26:                                               ; preds = %23
  %27 = load ptr, ptr %25, align 8
  %.not20 = icmp eq ptr %27, null
  br i1 %.not20, label %.thread, label %.thread23

.thread:                                          ; preds = %23, %26
  call void (ptr, ptr, ...) @zend_throw_error(ptr noundef null, ptr noundef nonnull @.str.1) #14
  br label %32

28:                                               ; preds = %17
  %29 = load ptr, ptr %19, align 8
  %30 = call ptr @xmlDocGetRootElement(ptr noundef %29) #14
  %31 = icmp eq ptr %30, null
  br i1 %31, label %32, label %.thread23

32:                                               ; preds = %.thread, %28
  %33 = getelementptr inbounds i8, ptr %1, i64 8
  store i32 2, ptr %33, align 8
  br label %39

.thread23:                                        ; preds = %26, %28
  %.025 = phi ptr [ %30, %28 ], [ %27, %26 ]
  %34 = call ptr @_zend_new_array_0() #14
  store ptr %34, ptr %1, align 8
  %35 = getelementptr inbounds i8, ptr %1, i64 8
  store i32 775, ptr %35, align 8
  %36 = load i8, ptr %3, align 1
  %37 = and i8 %36, 1
  %38 = icmp ne i8 %37, 0
  call fastcc void @sxe_add_registered_namespaces(ptr noundef nonnull %.025, i1 noundef zeroext %38, ptr noundef nonnull %1)
  br label %39

39:                                               ; preds = %.thread23, %32, %20, %9
  ret void
}